target datalayout = "e-m:e-p270:32:32-p271:32:32-p272:64:64-i64:64-i128:128-f80:128-n8:16:32:64-S128"
target triple = "x86_64-pc-linux-gnu"

%struct.tsi_peer_property = type { ptr, %struct.anon }
%struct.anon = type { ptr, i64 }
%struct.tsi_peer = type { ptr, i64 }

; Function Attrs: mustprogress nounwind uwtable
define noundef ptr @_Z29tsi_peer_get_property_by_namePK8tsi_peerPKc(ptr noundef %0, ptr noundef %1) #4 {
  %3 = alloca ptr, align 8
  %4 = alloca ptr, align 8
  %5 = alloca ptr, align 8
  %6 = alloca i64, align 8
  %7 = alloca i32, align 4
  %8 = alloca ptr, align 8
  store ptr %0, ptr %4, align 8, !tbaa !38
  store ptr %1, ptr %5, align 8, !tbaa !12
  call void @llvm.lifetime.start.p0(i64 8, ptr %6) #3
  %9 = load ptr, ptr %4, align 8, !tbaa !38
  %10 = icmp eq ptr %9, null
  br i1 %10, label %11, label %12

11:                                               ; preds = %2
  store ptr null, ptr %3, align 8
  store i32 1, ptr %7, align 4
  br label %59

12:                                               ; preds = %2
  store i64 0, ptr %6, align 8, !tbaa !45
  br label %13

13:                                               ; preds = %55, %12
  %14 = load i64, ptr %6, align 8, !tbaa !45
  %15 = load ptr, ptr %4, align 8, !tbaa !38
  %16 = getelementptr inbounds nuw %struct.tsi_peer, ptr %15, i32 0, i32 1
  %17 = load i64, ptr %16, align 8, !tbaa !78
  %18 = icmp ult i64 %14, %17
  br i1 %18, label %19, label %58

19:                                               ; preds = %13
  call void @llvm.lifetime.start.p0(i64 8, ptr %8) #3
  %20 = load ptr, ptr %4, align 8, !tbaa !38
  %21 = getelementptr inbounds nuw %struct.tsi_peer, ptr %20, i32 0, i32 0
  %22 = load ptr, ptr %21, align 8, !tbaa !76
  %23 = load i64, ptr %6, align 8, !tbaa !45
  %24 = getelementptr inbounds nuw %struct.tsi_peer_property, ptr %22, i64 %23
  store ptr %24, ptr %8, align 8, !tbaa !69
  %25 = load ptr, ptr %5, align 8, !tbaa !12
  %26 = icmp eq ptr %25, null
  br i1 %26, label %27, label %34

27:                                               ; preds = %19
  %28 = load ptr, ptr %8, align 8, !tbaa !69
  %29 = getelementptr inbounds nuw %struct.tsi_peer_property, ptr %28, i32 0, i32 0
  %30 = load ptr, ptr %29, align 8, !tbaa !71
  %31 = icmp eq ptr %30, null
  br i1 %31, label %32, label %34

32:                                               ; preds = %27
  %33 = load ptr, ptr %8, align 8, !tbaa !69
  store ptr %33, ptr %3, align 8
  store i32 1, ptr %7, align 4
  br label %52

34:                                               ; preds = %27, %19
  %35 = load ptr, ptr %5, align 8, !tbaa !12
  %36 = icmp ne ptr %35, null
  br i1 %36, label %37, label %51

37:                                               ; preds = %34
  %38 = load ptr, ptr %8, align 8, !tbaa !69
  %39 = getelementptr inbounds nuw %struct.tsi_peer_property, ptr %38, i32 0, i32 0
  %40 = load ptr, ptr %39, align 8, !tbaa !71
  %41 = icmp ne ptr %40, null
  br i1 %41, label %42, label %51

42:                                               ; preds = %37
  %43 = load ptr, ptr %8, align 8, !tbaa !69
  %44 = getelementptr inbounds nuw %struct.tsi_peer_property, ptr %43, i32 0, i32 0
  %45 = load ptr, ptr %44, align 8, !tbaa !71
  %46 = load ptr, ptr %5, align 8, !tbaa !12
  %47 = call i32 @strcmp(ptr noundef %45, ptr noundef %46) #10
  %48 = icmp eq i32 %47, 0
  br i1 %48, label %49, label %51

49:                                               ; preds = %42
  %50 = load ptr, ptr %8, align 8, !tbaa !69
  store ptr %50, ptr %3, align 8
  store i32 1, ptr %7, align 4
  br label %52

51:                                               ; preds = %42, %37, %34
  store i32 0, ptr %7, align 4
  br label %52

52:                                               ; preds = %51, %49, %32
  call void @llvm.lifetime.end.p0(i64 8, ptr %8) #3
  %53 = load i32, ptr %7, align 4
  switch i32 %53, label %59 [
    i32 0, label %54
  ]

54:                                               ; preds = %52
  br label %55

55:                                               ; preds = %54
  %56 = load i64, ptr %6, align 8, !tbaa !45
  %57 = add i64 %56, 1
  store i64 %57, ptr %6, align 8, !tbaa !45
  br label %13, !llvm.loop !82

58:                                               ; preds = %13
  store ptr null, ptr %3, align 8
  store i32 1, ptr %7, align 4
  br label %59

59:                                               ; preds = %58, %52, %11
  call void @llvm.lifetime.end.p0(i64 8, ptr %6) #3
  %60 = load ptr, ptr %3, align 8
  ret ptr %60
}