; Function Attrs: mustprogress nofree nounwind willreturn memory(read, inaccessiblemem: none) uwtable
define noundef ptr @_Z29tsi_peer_get_property_by_namePK8tsi_peerPKc(ptr noundef readonly %0, ptr noundef readonly %1) local_unnamed_addr #9 {
  %3 = icmp eq ptr %0, null
  br i1 %3, label %.thread23, label %.preheader

.preheader:                                       ; preds = %2
  %4 = getelementptr inbounds nuw i8, ptr %0, i64 8
  %5 = load i64, ptr %4, align 8, !tbaa !53
  %.not = icmp eq i64 %5, 0
  br i1 %.not, label %.thread23, label %.lr.ph

.lr.ph:                                           ; preds = %.preheader
  %6 = load ptr, ptr %0, align 8, !tbaa !50
  %cond21 = icmp eq ptr %1, null
  br i1 %cond21, label %.lr.ph.split.us, label %.lr.ph.split

.lr.ph.split.us:                                  ; preds = %.lr.ph, %10
  %.01626.us = phi i64 [ %11, %10 ], [ 0, %.lr.ph ]
  %7 = getelementptr inbounds nuw %struct.tsi_peer_property, ptr %6, i64 %.01626.us
  %8 = load ptr, ptr %7, align 8, !tbaa !46
  %9 = icmp eq ptr %8, null
  br i1 %9, label %.thread23, label %10

10:                                               ; preds = %.lr.ph.split.us
  %11 = add nuw i64 %.01626.us, 1
  %exitcond33.not = icmp eq i64 %11, %5
  br i1 %exitcond33.not, label %.thread23, label %.lr.ph.split.us, !llvm.loop !57

.lr.ph.split:                                     ; preds = %.lr.ph, %15
  %.01626 = phi i64 [ %16, %15 ], [ 0, %.lr.ph ]
  %12 = getelementptr inbounds nuw %struct.tsi_peer_property, ptr %6, i64 %.01626
  %.pr = load ptr, ptr %12, align 8, !tbaa !46
  %.not20 = icmp eq ptr %.pr, null
  br i1 %.not20, label %15, label %.thread

.thread:                                          ; preds = %.lr.ph.split
  %13 = tail call i32 @strcmp(ptr noundef nonnull dereferenceable(1) %.pr, ptr noundef nonnull dereferenceable(1) %1) #11
  %14 = icmp eq i32 %13, 0
  br i1 %14, label %.thread23, label %15

15:                                               ; preds = %.thread, %.lr.ph.split
  %16 = add nuw i64 %.01626, 1
  %exitcond.not = icmp eq i64 %16, %5
  br i1 %exitcond.not, label %.thread23, label %.lr.ph.split, !llvm.loop !57

.thread23:                                        ; preds = %15, %.thread, %10, %.lr.ph.split.us, %.preheader, %2
  %.0 = phi ptr [ null, %2 ], [ null, %.preheader ], [ null, %10 ], [ %7, %.lr.ph.split.us ], [ null, %15 ], [ %12, %.thread ]
  ret ptr %.0
}